target datalayout = "e-m:e-p270:32:32-p271:32:32-p272:64:64-i64:64-i128:128-f80:128-n8:16:32:64-S128"
target triple = "x86_64-pc-linux-gnu"

%struct._php_stream_xport_crypto_param = type { %struct.anon.10, %struct.anon.11, i32 }
%struct.anon.10 = type { ptr, i32, i32 }
%struct.anon.11 = type { i32 }

@.str.11 = private unnamed_addr constant [15 x i8] c"streams.crypto\00", align 1
@.str.12 = private unnamed_addr constant [40 x i8] c"This stream does not support SSL/crypto\00", align 1

; Function Attrs: nounwind uwtable
define i32 @php_stream_xport_crypto_setup(ptr noundef %0, i32 noundef %1, ptr noundef %2) #0 {
  %4 = alloca i32, align 4
  %5 = alloca ptr, align 8
  %6 = alloca i32, align 4
  %7 = alloca ptr, align 8
  %8 = alloca %struct._php_stream_xport_crypto_param, align 8
  %9 = alloca i32, align 4
  store ptr %0, ptr %5, align 8
  store i32 %1, ptr %6, align 4
  store ptr %2, ptr %7, align 8
  call void @llvm.memset.p0.i64(ptr align 8 %8, i8 0, i64 24, i1 false)
  %10 = getelementptr inbounds %struct._php_stream_xport_crypto_param, ptr %8, i32 0, i32 2
  store i32 0, ptr %10, align 4
  %11 = load i32, ptr %6, align 4
  %12 = getelementptr inbounds %struct._php_stream_xport_crypto_param, ptr %8, i32 0, i32 0
  %13 = getelementptr inbounds %struct.anon.10, ptr %12, i32 0, i32 2
  store i32 %11, ptr %13, align 4
  %14 = load ptr, ptr %7, align 8
  %15 = getelementptr inbounds %struct._php_stream_xport_crypto_param, ptr %8, i32 0, i32 0
  %16 = getelementptr inbounds %struct.anon.10, ptr %15, i32 0, i32 0
  store ptr %14, ptr %16, align 8
  %17 = load ptr, ptr %5, align 8
  %18 = call i32 @_php_stream_set_option(ptr noundef %17, i32 noundef 8, i32 noundef 0, ptr noundef %8)
  store i32 %18, ptr %9, align 4
  %19 = load i32, ptr %9, align 4
  %20 = icmp eq i32 %19, 0
  br i1 %20, label %21, label %25

21:                                               ; preds = %3
  %22 = getelementptr inbounds %struct._php_stream_xport_crypto_param, ptr %8, i32 0, i32 1
  %23 = getelementptr inbounds %struct.anon.11, ptr %22, i32 0, i32 0
  %24 = load i32, ptr %23, align 8
  store i32 %24, ptr %4, align 4
  br label %27

25:                                               ; preds = %3
  call void (ptr, i32, ptr, ...) @php_error_docref(ptr noundef @.str.11, i32 noundef 2, ptr noundef @.str.12)
  %26 = load i32, ptr %9, align 4
  store i32 %26, ptr %4, align 4
  br label %27

27:                                               ; preds = %25, %21
  %28 = load i32, ptr %4, align 4
  ret i32 %28
}