; Function Attrs: nounwind uwtable
define i32 @php_stream_xport_crypto_setup(ptr noundef %0, i32 noundef %1, ptr noundef %2) local_unnamed_addr #1 {
  %4 = alloca %struct._php_stream_xport_crypto_param, align 8
  %5 = getelementptr inbounds i8, ptr %4, i64 12
  %6 = getelementptr inbounds i8, ptr %4, i64 8
  call void @llvm.memset.p0.i64(ptr noundef nonnull align 8 dereferenceable(16) %6, i8 0, i64 16, i1 false)
  store i32 %1, ptr %5, align 4
  store ptr %2, ptr %4, align 8
  %7 = call i32 @_php_stream_set_option(ptr noundef %0, i32 noundef 8, i32 noundef 0, ptr noundef nonnull %4) #14
  %8 = icmp eq i32 %7, 0
  br i1 %8, label %9, label %12

9:                                                ; preds = %3
  %10 = getelementptr inbounds i8, ptr %4, i64 16
  %11 = load i32, ptr %10, align 8
  br label %13

12:                                               ; preds = %3
  call void (ptr, i32, ptr, ...) @php_error_docref(ptr noundef nonnull @.str.11, i32 noundef 2, ptr noundef nonnull @.str.12) #14
  br label %13

13:                                               ; preds = %12, %9
  %.0 = phi i32 [ %11, %9 ], [ %7, %12 ]
  ret i32 %.0
}